; Function Attrs: mustprogress nounwind uwtable
define hidden void @_ZN14MacroAssembler10decrementqE7Addressi(ptr noundef nonnull align 8 dereferenceable(40) %0, ptr noundef %1, i32 noundef %2) local_unnamed_addr #0 align 2 {
  %4 = alloca %class.Address, align 8
  %5 = alloca %class.Address, align 8
  %6 = alloca %class.Address, align 8
  %7 = alloca %class.Address, align 8
  %8 = icmp eq i32 %2, -2147483648
  br i1 %8, label %9, label %15

9:                                                ; preds = %3
  call void @llvm.memcpy.p0.p0.i64(ptr noundef nonnull align 8 dereferenceable(21) %4, ptr noundef nonnull align 8 dereferenceable(21) %1, i64 21, i1 false)
  %10 = getelementptr inbounds i8, ptr %4, i64 24
  %11 = getelementptr inbounds i8, ptr %1, i64 24
  %12 = load ptr, ptr %11, align 8
  %13 = getelementptr inbounds i8, ptr %12, i64 16
  %14 = load ptr, ptr %13, align 8
  call void %14(ptr noundef nonnull align 8 dereferenceable(20) %11, ptr noundef nonnull align 8 dereferenceable(40) %10) #18
  call void @_ZN9Assembler4subqE7Addressi(ptr noundef nonnull align 8 dereferenceable(40) %0, ptr noundef nonnull %4, i32 noundef -2147483648) #18
  br label %40

15:                                               ; preds = %3
  %16 = icmp slt i32 %2, 0
  br i1 %16, label %17, label %24

17:                                               ; preds = %15
  call void @llvm.memcpy.p0.p0.i64(ptr noundef nonnull align 8 dereferenceable(21) %5, ptr noundef nonnull align 8 dereferenceable(21) %1, i64 21, i1 false)
  %18 = getelementptr inbounds i8, ptr %5, i64 24
  %19 = getelementptr inbounds i8, ptr %1, i64 24
  %20 = load ptr, ptr %19, align 8
  %21 = getelementptr inbounds i8, ptr %20, i64 16
  %22 = load ptr, ptr %21, align 8
  call void %22(ptr noundef nonnull align 8 dereferenceable(20) %19, ptr noundef nonnull align 8 dereferenceable(40) %18) #18
  %23 = sub nsw i32 0, %2
  call void @_ZN14MacroAssembler10incrementqE7Addressi(ptr noundef nonnull align 8 dereferenceable(40) %0, ptr noundef nonnull %5, i32 noundef %23)
  br label %40

24:                                               ; preds = %15
  switch i32 %2, label %34 [
    i32 0, label %40
    i32 1, label %25
  ]

25:                                               ; preds = %24
  %26 = load i8, ptr @UseIncDec, align 1
  %27 = trunc i8 %26 to i1
  br i1 %27, label %28, label %34

28:                                               ; preds = %25
  call void @llvm.memcpy.p0.p0.i64(ptr noundef nonnull align 8 dereferenceable(21) %6, ptr noundef nonnull align 8 dereferenceable(21) %1, i64 21, i1 false)
  %29 = getelementptr inbounds i8, ptr %6, i64 24
  %30 = getelementptr inbounds i8, ptr %1, i64 24
  %31 = load ptr, ptr %30, align 8
  %32 = getelementptr inbounds i8, ptr %31, i64 16
  %33 = load ptr, ptr %32, align 8
  call void %33(ptr noundef nonnull align 8 dereferenceable(20) %30, ptr noundef nonnull align 8 dereferenceable(40) %29) #18
  call void @_ZN9Assembler4decqE7Address(ptr noundef nonnull align 8 dereferenceable(40) %0, ptr noundef nonnull %6) #18
  br label %40

34:                                               ; preds = %24, %25
  call void @llvm.memcpy.p0.p0.i64(ptr noundef nonnull align 8 dereferenceable(21) %7, ptr noundef nonnull align 8 dereferenceable(21) %1, i64 21, i1 false)
  %35 = getelementptr inbounds i8, ptr %7, i64 24
  %36 = getelementptr inbounds i8, ptr %1, i64 24
  %37 = load ptr, ptr %36, align 8
  %38 = getelementptr inbounds i8, ptr %37, i64 16
  %39 = load ptr, ptr %38, align 8
  call void %39(ptr noundef nonnull align 8 dereferenceable(20) %36, ptr noundef nonnull align 8 dereferenceable(40) %35) #18
  call void @_ZN9Assembler4subqE7Addressi(ptr noundef nonnull align 8 dereferenceable(40) %0, ptr noundef nonnull %7, i32 noundef %2) #18
  br label %40

40:                                               ; preds = %24, %34, %28, %17, %9
  ret void
}